target datalayout = "e-m:e-p270:32:32-p271:32:32-p272:64:64-i64:64-i128:128-f80:128-n8:16:32:64-S128"
target triple = "x86_64-pc-linux-gnu"

; Function Attrs: nounwind uwtable
define internal i64 @trhash(ptr noundef %0, i64 noundef %1, i64 noundef %2) #0 {
  %4 = alloca ptr, align 8
  %5 = alloca i64, align 8
  %6 = alloca i64, align 8
  %7 = alloca i8, align 1
  store ptr %0, ptr %4, align 8, !tbaa !7
  store i64 %1, ptr %5, align 8, !tbaa !3
  store i64 %2, ptr %6, align 8, !tbaa !3
  call void @llvm.lifetime.start.p0(i64 1, ptr %7) #9
  %8 = load ptr, ptr %4, align 8, !tbaa !7
  %9 = load i64, ptr %5, align 8, !tbaa !3
  %10 = sub i64 %9, 1
  %11 = getelementptr inbounds nuw i8, ptr %8, i64 %10
  %12 = load i8, ptr %11, align 1, !tbaa !104
  %13 = zext i8 %12 to i32
  %14 = load ptr, ptr %4, align 8, !tbaa !7
  %15 = getelementptr inbounds i8, ptr %14, i64 0
  %16 = load i8, ptr %15, align 1, !tbaa !104
  %17 = zext i8 %16 to i32
  %18 = xor i32 %13, %17
  %19 = trunc i32 %18 to i8
  store i8 %19, ptr %7, align 1, !tbaa !104
  %20 = load i8, ptr %7, align 1, !tbaa !104
  %21 = zext i8 %20 to i64
  %22 = load i64, ptr %6, align 8, !tbaa !3
  %23 = urem i64 %21, %22
  call void @llvm.lifetime.end.p0(i64 1, ptr %7) #9
  ret i64 %23
}