; Function Attrs: mustprogress nofree norecurse nosync nounwind willreturn memory(argmem: read) uwtable
define internal range(i64 0, 256) i64 @trhash(ptr noundef readonly captures(none) %0, i64 noundef %1, i64 noundef %2) #4 {
  %4 = getelementptr i8, ptr %0, i64 %1
  %5 = getelementptr i8, ptr %4, i64 -1
  %6 = load i8, ptr %5, align 1, !tbaa !96
  %7 = load i8, ptr %0, align 1, !tbaa !96
  %8 = xor i8 %7, %6
  %9 = zext i8 %8 to i64
  %10 = urem i64 %9, %2
  ret i64 %10
}